target datalayout = "e-m:e-p270:32:32-p271:32:32-p272:64:64-i64:64-i128:128-f80:128-n8:16:32:64-S128"
target triple = "x86_64-pc-linux-gnu"

%struct._lv_global_t = type { i8, i8, %struct.lv_ll_t, ptr, ptr, %struct.lv_ll_t, i8, i32, i32, ptr, %struct.lv_ll_t, ptr, %struct.lv_ll_t, ptr, ptr, i32, ptr, i8, i32, i32, ptr, i32, %struct.lv_timer_state_t, %struct.lv_anim_state_t, %struct.lv_tick_state_t, %struct._lv_draw_buf_handlers_t, %struct._lv_draw_buf_handlers_t, %struct._lv_draw_buf_handlers_t, %struct.lv_ll_t, ptr, ptr, %struct.lv_draw_global_info_t, [4 x %struct.lv_draw_sw_mask_radius_circle_dsc_t], ptr, ptr, ptr, %struct.lv_tlsf_state_t, %struct.lv_ll_t, ptr, ptr, %struct.lv_style_t, i64, ptr, i32, ptr }
%struct.lv_timer_state_t = type { %struct.lv_ll_t, i8, i8, i8, i8, i32, i8, i32, i32, i32, i32, ptr, ptr }
%struct.lv_anim_state_t = type { i8, i8, ptr, %struct.lv_ll_t }
%struct.lv_tick_state_t = type { i32, i8, ptr, ptr }
%struct._lv_draw_buf_handlers_t = type { ptr, ptr, ptr, ptr, ptr, ptr }
%struct.lv_draw_global_info_t = type { ptr, i32, i32, i32, i32, i8 }
%struct.lv_draw_sw_mask_radius_circle_dsc_t = type { ptr, ptr, ptr, ptr, i32, i32, i32 }
%struct.lv_tlsf_state_t = type { ptr, i64, i64, %struct.lv_ll_t }
%struct.lv_ll_t = type { i32, ptr, ptr }
%struct.lv_style_t = type { ptr, i32, i8 }
%struct._lv_draw_buf_t = type { %struct.lv_image_header_t, i32, ptr, ptr, ptr }
%struct.lv_image_header_t = type <{ i64, i32 }>

@lv_global = external global %struct._lv_global_t, align 8

; Function Attrs: nounwind uwtable
define ptr @lv_draw_buf_align_ex(ptr noundef %0, ptr noundef %1, i32 noundef %2) #0 {
  %4 = alloca ptr, align 8
  %5 = alloca ptr, align 8
  %6 = alloca ptr, align 8
  %7 = alloca i32, align 4
  store ptr %0, ptr %5, align 8, !tbaa !3
  store ptr %1, ptr %6, align 8, !tbaa !8
  store i32 %2, ptr %7, align 4, !tbaa !18
  %8 = load ptr, ptr %5, align 8, !tbaa !3
  %9 = getelementptr inbounds nuw %struct._lv_draw_buf_handlers_t, ptr %8, i32 0, i32 2
  %10 = load ptr, ptr %9, align 8, !tbaa !12
  %11 = icmp ne ptr %10, null
  br i1 %11, label %12, label %19

12:                                               ; preds = %3
  %13 = load ptr, ptr %5, align 8, !tbaa !3
  %14 = getelementptr inbounds nuw %struct._lv_draw_buf_handlers_t, ptr %13, i32 0, i32 2
  %15 = load ptr, ptr %14, align 8, !tbaa !12
  %16 = load ptr, ptr %6, align 8, !tbaa !8
  %17 = load i32, ptr %7, align 4, !tbaa !18
  %18 = call ptr %15(ptr noundef %16, i32 noundef %17)
  store ptr %18, ptr %4, align 8
  br label %20

19:                                               ; preds = %3
  store ptr null, ptr %4, align 8
  br label %20

20:                                               ; preds = %19, %12
  %21 = load ptr, ptr %4, align 8
  ret ptr %21
}

; Function Attrs: nounwind uwtable
define i32 @lv_draw_buf_width_to_stride_ex(ptr noundef %0, i32 noundef %1, i32 noundef %2) #0 {
  %4 = alloca i32, align 4
  %5 = alloca ptr, align 8
  %6 = alloca i32, align 4
  %7 = alloca i32, align 4
  store ptr %0, ptr %5, align 8, !tbaa !3
  store i32 %1, ptr %6, align 4, !tbaa !18
  store i32 %2, ptr %7, align 4, !tbaa !18
  %8 = load ptr, ptr %5, align 8, !tbaa !3
  %9 = getelementptr inbounds nuw %struct._lv_draw_buf_handlers_t, ptr %8, i32 0, i32 5
  %10 = load ptr, ptr %9, align 8, !tbaa !15
  %11 = icmp ne ptr %10, null
  br i1 %11, label %12, label %19

12:                                               ; preds = %3
  %13 = load ptr, ptr %5, align 8, !tbaa !3
  %14 = getelementptr inbounds nuw %struct._lv_draw_buf_handlers_t, ptr %13, i32 0, i32 5
  %15 = load ptr, ptr %14, align 8, !tbaa !15
  %16 = load i32, ptr %6, align 4, !tbaa !18
  %17 = load i32, ptr %7, align 4, !tbaa !18
  %18 = call i32 %15(i32 noundef %16, i32 noundef %17)
  store i32 %18, ptr %4, align 4
  br label %20

19:                                               ; preds = %3
  store i32 0, ptr %4, align 4
  br label %20

20:                                               ; preds = %19, %12
  %21 = load i32, ptr %4, align 4
  ret i32 %21
}

; Function Attrs: nounwind uwtable
define ptr @lv_draw_buf_align(ptr noundef %0, i32 noundef %1) #0 {
  %3 = alloca ptr, align 8
  %4 = alloca i32, align 4
  store ptr %0, ptr %3, align 8, !tbaa !8
  store i32 %1, ptr %4, align 4, !tbaa !18
  %5 = load ptr, ptr %3, align 8, !tbaa !8
  %6 = load i32, ptr %4, align 4, !tbaa !18
  %7 = call ptr @lv_draw_buf_align_ex(ptr noundef getelementptr inbounds nuw (%struct._lv_global_t, ptr @lv_global, i32 0, i32 25), ptr noundef %5, i32 noundef %6)
  ret ptr %7
}

; Function Attrs: nounwind uwtable
define internal ptr @draw_buf_malloc(ptr noundef %0, i64 noundef %1, i32 noundef %2) #0 {
  %4 = alloca ptr, align 8
  %5 = alloca ptr, align 8
  %6 = alloca i64, align 8
  %7 = alloca i32, align 4
  store ptr %0, ptr %5, align 8, !tbaa !3
  store i64 %1, ptr %6, align 8, !tbaa !16
  store i32 %2, ptr %7, align 4, !tbaa !18
  %8 = load ptr, ptr %5, align 8, !tbaa !3
  %9 = getelementptr inbounds nuw %struct._lv_draw_buf_handlers_t, ptr %8, i32 0, i32 0
  %10 = load ptr, ptr %9, align 8, !tbaa !9
  %11 = icmp ne ptr %10, null
  br i1 %11, label %12, label %19

12:                                               ; preds = %3
  %13 = load ptr, ptr %5, align 8, !tbaa !3
  %14 = getelementptr inbounds nuw %struct._lv_draw_buf_handlers_t, ptr %13, i32 0, i32 0
  %15 = load ptr, ptr %14, align 8, !tbaa !9
  %16 = load i64, ptr %6, align 8, !tbaa !16
  %17 = load i32, ptr %7, align 4, !tbaa !18
  %18 = call ptr %15(i64 noundef %16, i32 noundef %17)
  store ptr %18, ptr %4, align 8
  br label %20

19:                                               ; preds = %3
  store ptr null, ptr %4, align 8
  br label %20

20:                                               ; preds = %19, %12
  %21 = load ptr, ptr %4, align 8
  ret ptr %21
}

; Function Attrs: nounwind uwtable
define internal i32 @_calculate_draw_buf_size(i32 noundef %0, i32 noundef %1, i32 noundef %2, i32 noundef %3) #0 {
  %5 = alloca i32, align 4
  %6 = alloca i32, align 4
  %7 = alloca i32, align 4
  %8 = alloca i32, align 4
  %9 = alloca i32, align 4
  store i32 %0, ptr %5, align 4, !tbaa !18
  store i32 %1, ptr %6, align 4, !tbaa !18
  store i32 %2, ptr %7, align 4, !tbaa !18
  store i32 %3, ptr %8, align 4, !tbaa !18
  call void @llvm.lifetime.start.p0(i64 4, ptr %9) #5
  %10 = load i32, ptr %8, align 4, !tbaa !18
  %11 = icmp eq i32 %10, 0
  br i1 %11, label %12, label %16

12:                                               ; preds = %4
  %13 = load i32, ptr %5, align 4, !tbaa !18
  %14 = load i32, ptr %7, align 4, !tbaa !18
  %15 = call i32 @lv_draw_buf_width_to_stride(i32 noundef %13, i32 noundef %14)
  store i32 %15, ptr %8, align 4, !tbaa !18
  br label %16

16:                                               ; preds = %12, %4
  %17 = load i32, ptr %8, align 4, !tbaa !18
  %18 = load i32, ptr %6, align 4, !tbaa !18
  %19 = mul i32 %17, %18
  store i32 %19, ptr %9, align 4, !tbaa !18
  %20 = load i32, ptr %7, align 4, !tbaa !18
  %21 = icmp eq i32 %20, 20
  br i1 %21, label %22, label %29

22:                                               ; preds = %16
  %23 = load i32, ptr %8, align 4, !tbaa !18
  %24 = udiv i32 %23, 2
  %25 = load i32, ptr %6, align 4, !tbaa !18
  %26 = mul i32 %24, %25
  %27 = load i32, ptr %9, align 4, !tbaa !18
  %28 = add i32 %27, %26
  store i32 %28, ptr %9, align 4, !tbaa !18
  br label %61

29:                                               ; preds = %16
  %30 = load i32, ptr %7, align 4, !tbaa !18
  %31 = icmp uge i32 %30, 7
  br i1 %31, label %32, label %60

32:                                               ; preds = %29
  %33 = load i32, ptr %7, align 4, !tbaa !18
  %34 = icmp ule i32 %33, 10
  br i1 %34, label %35, label %60

35:                                               ; preds = %32
  %36 = load i32, ptr %7, align 4, !tbaa !18
  %37 = icmp eq i32 %36, 7
  br i1 %37, label %38, label %39

38:                                               ; preds = %35
  br label %55

39:                                               ; preds = %35
  %40 = load i32, ptr %7, align 4, !tbaa !18
  %41 = icmp eq i32 %40, 8
  br i1 %41, label %42, label %43

42:                                               ; preds = %39
  br label %53

43:                                               ; preds = %39
  %44 = load i32, ptr %7, align 4, !tbaa !18
  %45 = icmp eq i32 %44, 9
  br i1 %45, label %46, label %47

46:                                               ; preds = %43
  br label %51

47:                                               ; preds = %43
  %48 = load i32, ptr %7, align 4, !tbaa !18
  %49 = icmp eq i32 %48, 10
  %50 = select i1 %49, i32 256, i32 0
  br label %51

51:                                               ; preds = %47, %46
  %52 = phi i32 [ 16, %46 ], [ %50, %47 ]
  br label %53

53:                                               ; preds = %51, %42
  %54 = phi i32 [ 4, %42 ], [ %52, %51 ]
  br label %55

55:                                               ; preds = %53, %38
  %56 = phi i32 [ 2, %38 ], [ %54, %53 ]
  %57 = mul nsw i32 %56, 4
  %58 = load i32, ptr %9, align 4, !tbaa !18
  %59 = add i32 %58, %57
  store i32 %59, ptr %9, align 4, !tbaa !18
  br label %60

60:                                               ; preds = %55, %32, %29
  br label %61

61:                                               ; preds = %60, %22
  %62 = load i32, ptr %9, align 4, !tbaa !18
  call void @llvm.lifetime.end.p0(i64 4, ptr %9) #5
  ret i32 %62
}

; Function Attrs: nounwind uwtable
define i32 @lv_draw_buf_width_to_stride(i32 noundef %0, i32 noundef %1) #0 {
  %3 = alloca i32, align 4
  %4 = alloca i32, align 4
  store i32 %0, ptr %3, align 4, !tbaa !18
  store i32 %1, ptr %4, align 4, !tbaa !18
  %5 = load i32, ptr %3, align 4, !tbaa !18
  %6 = load i32, ptr %4, align 4, !tbaa !18
  %7 = call i32 @lv_draw_buf_width_to_stride_ex(ptr noundef getelementptr inbounds nuw (%struct._lv_global_t, ptr @lv_global, i32 0, i32 25), i32 noundef %5, i32 noundef %6)
  ret i32 %7
}

; Function Attrs: nounwind uwtable
define ptr @lv_draw_buf_create_ex(ptr noundef %0, i32 noundef %1, i32 noundef %2, i32 noundef %3, i32 noundef %4) #0 {
  %6 = alloca ptr, align 8
  %7 = alloca ptr, align 8
  %8 = alloca i32, align 4
  %9 = alloca i32, align 4
  %10 = alloca i32, align 4
  %11 = alloca i32, align 4
  %12 = alloca ptr, align 8
  %13 = alloca i32, align 4
  %14 = alloca i32, align 4
  %15 = alloca ptr, align 8
  store ptr %0, ptr %7, align 8, !tbaa !3
  store i32 %1, ptr %8, align 4, !tbaa !18
  store i32 %2, ptr %9, align 4, !tbaa !18
  store i32 %3, ptr %10, align 4, !tbaa !18
  store i32 %4, ptr %11, align 4, !tbaa !18
  call void @llvm.lifetime.start.p0(i64 8, ptr %12) #5
  %16 = call ptr @lv_malloc_zeroed(i64 noundef 40)
  store ptr %16, ptr %12, align 8, !tbaa !22
  br label %17

17:                                               ; preds = %5
  %18 = load ptr, ptr %12, align 8, !tbaa !22
  %19 = icmp ne ptr %18, null
  br i1 %19, label %26, label %20

20:                                               ; preds = %17
  br label %21

21:                                               ; preds = %20
  br label %22

22:                                               ; preds = %21
  br label %23

23:                                               ; preds = %22
  br label %24

24:                                               ; preds = %25, %23
  br label %25

25:                                               ; preds = %24
  br label %24

26:                                               ; preds = %17
  br label %27

27:                                               ; preds = %26
  br label %28

28:                                               ; preds = %27
  %29 = load ptr, ptr %12, align 8, !tbaa !22
  %30 = icmp eq ptr %29, null
  br i1 %30, label %31, label %32

31:                                               ; preds = %28
  store ptr null, ptr %6, align 8
  store i32 1, ptr %13, align 4
  br label %119

32:                                               ; preds = %28
  %33 = load i32, ptr %11, align 4, !tbaa !18
  %34 = icmp eq i32 %33, 0
  br i1 %34, label %35, label %39

35:                                               ; preds = %32
  %36 = load i32, ptr %8, align 4, !tbaa !18
  %37 = load i32, ptr %10, align 4, !tbaa !18
  %38 = call i32 @lv_draw_buf_width_to_stride(i32 noundef %36, i32 noundef %37)
  store i32 %38, ptr %11, align 4, !tbaa !18
  br label %39

39:                                               ; preds = %35, %32
  call void @llvm.lifetime.start.p0(i64 4, ptr %14) #5
  %40 = load i32, ptr %8, align 4, !tbaa !18
  %41 = load i32, ptr %9, align 4, !tbaa !18
  %42 = load i32, ptr %10, align 4, !tbaa !18
  %43 = load i32, ptr %11, align 4, !tbaa !18
  %44 = call i32 @_calculate_draw_buf_size(i32 noundef %40, i32 noundef %41, i32 noundef %42, i32 noundef %43)
  store i32 %44, ptr %14, align 4, !tbaa !18
  call void @llvm.lifetime.start.p0(i64 8, ptr %15) #5
  %45 = load ptr, ptr %7, align 8, !tbaa !3
  %46 = load i32, ptr %14, align 4, !tbaa !18
  %47 = zext i32 %46 to i64
  %48 = load i32, ptr %10, align 4, !tbaa !18
  %49 = call ptr @draw_buf_malloc(ptr noundef %45, i64 noundef %47, i32 noundef %48)
  store ptr %49, ptr %15, align 8, !tbaa !8
  %50 = load ptr, ptr %15, align 8, !tbaa !8
  %51 = icmp eq ptr %50, null
  br i1 %51, label %52, label %57

52:                                               ; preds = %39
  br label %53

53:                                               ; preds = %52
  br label %54

54:                                               ; preds = %53
  br label %55

55:                                               ; preds = %54
  %56 = load ptr, ptr %12, align 8, !tbaa !22
  call void @lv_free(ptr noundef %56)
  store ptr null, ptr %6, align 8
  store i32 1, ptr %13, align 4
  br label %118

57:                                               ; preds = %39
  %58 = load i32, ptr %8, align 4, !tbaa !18
  %59 = load ptr, ptr %12, align 8, !tbaa !22
  %60 = getelementptr inbounds nuw %struct._lv_draw_buf_t, ptr %59, i32 0, i32 0
  %61 = zext i32 %58 to i64
  %62 = load i64, ptr %60, align 8
  %63 = and i64 %61, 65535
  %64 = shl i64 %63, 32
  %65 = and i64 %62, -281470681743361
  %66 = or i64 %65, %64
  store i64 %66, ptr %60, align 8
  %67 = load i32, ptr %9, align 4, !tbaa !18
  %68 = load ptr, ptr %12, align 8, !tbaa !22
  %69 = getelementptr inbounds nuw %struct._lv_draw_buf_t, ptr %68, i32 0, i32 0
  %70 = zext i32 %67 to i64
  %71 = load i64, ptr %69, align 8
  %72 = and i64 %70, 65535
  %73 = shl i64 %72, 48
  %74 = and i64 %71, 281474976710655
  %75 = or i64 %74, %73
  store i64 %75, ptr %69, align 8
  %76 = load i32, ptr %10, align 4, !tbaa !18
  %77 = load ptr, ptr %12, align 8, !tbaa !22
  %78 = getelementptr inbounds nuw %struct._lv_draw_buf_t, ptr %77, i32 0, i32 0
  %79 = zext i32 %76 to i64
  %80 = load i64, ptr %78, align 8
  %81 = and i64 %79, 255
  %82 = shl i64 %81, 8
  %83 = and i64 %80, -65281
  %84 = or i64 %83, %82
  store i64 %84, ptr %78, align 8
  %85 = load ptr, ptr %12, align 8, !tbaa !22
  %86 = getelementptr inbounds nuw %struct._lv_draw_buf_t, ptr %85, i32 0, i32 0
  %87 = load i64, ptr %86, align 8
  %88 = and i64 %87, -4294901761
  %89 = or i64 %88, 3145728
  store i64 %89, ptr %86, align 8
  %90 = load i32, ptr %11, align 4, !tbaa !18
  %91 = load ptr, ptr %12, align 8, !tbaa !22
  %92 = getelementptr inbounds nuw %struct._lv_draw_buf_t, ptr %91, i32 0, i32 0
  %93 = getelementptr inbounds nuw %struct.lv_image_header_t, ptr %92, i32 0, i32 1
  %94 = load i32, ptr %93, align 8
  %95 = and i32 %90, 65535
  %96 = and i32 %94, -65536
  %97 = or i32 %96, %95
  store i32 %97, ptr %93, align 8
  %98 = load ptr, ptr %12, align 8, !tbaa !22
  %99 = getelementptr inbounds nuw %struct._lv_draw_buf_t, ptr %98, i32 0, i32 0
  %100 = load i64, ptr %99, align 8
  %101 = and i64 %100, -256
  %102 = or i64 %101, 25
  store i64 %102, ptr %99, align 8
  %103 = load ptr, ptr %15, align 8, !tbaa !8
  %104 = load i32, ptr %10, align 4, !tbaa !18
  %105 = call ptr @lv_draw_buf_align(ptr noundef %103, i32 noundef %104)
  %106 = load ptr, ptr %12, align 8, !tbaa !22
  %107 = getelementptr inbounds nuw %struct._lv_draw_buf_t, ptr %106, i32 0, i32 2
  store ptr %105, ptr %107, align 8, !tbaa !35
  %108 = load ptr, ptr %15, align 8, !tbaa !8
  %109 = load ptr, ptr %12, align 8, !tbaa !22
  %110 = getelementptr inbounds nuw %struct._lv_draw_buf_t, ptr %109, i32 0, i32 3
  store ptr %108, ptr %110, align 8, !tbaa !37
  %111 = load i32, ptr %14, align 4, !tbaa !18
  %112 = load ptr, ptr %12, align 8, !tbaa !22
  %113 = getelementptr inbounds nuw %struct._lv_draw_buf_t, ptr %112, i32 0, i32 1
  store i32 %111, ptr %113, align 4, !tbaa !38
  %114 = load ptr, ptr %7, align 8, !tbaa !3
  %115 = load ptr, ptr %12, align 8, !tbaa !22
  %116 = getelementptr inbounds nuw %struct._lv_draw_buf_t, ptr %115, i32 0, i32 4
  store ptr %114, ptr %116, align 8, !tbaa !24
  %117 = load ptr, ptr %12, align 8, !tbaa !22
  store ptr %117, ptr %6, align 8
  store i32 1, ptr %13, align 4
  br label %118

118:                                              ; preds = %57, %55
  call void @llvm.lifetime.end.p0(i64 8, ptr %15) #5
  call void @llvm.lifetime.end.p0(i64 4, ptr %14) #5
  br label %119

119:                                              ; preds = %118, %31
  call void @llvm.lifetime.end.p0(i64 8, ptr %12) #5
  %120 = load ptr, ptr %6, align 8
  ret ptr %120
}