; Function Attrs: nounwind uwtable
define ptr @lv_draw_buf_create_ex(ptr noundef %0, i32 noundef %1, i32 noundef %2, i32 noundef %3, i32 noundef %4) local_unnamed_addr #0 {
  %6 = tail call ptr @lv_malloc_zeroed(i64 noundef 40) #9
  %.not = icmp eq ptr %6, null
  br i1 %.not, label %.preheader, label %7

.preheader:                                       ; preds = %5, %.preheader
  br label %.preheader

7:                                                ; preds = %5
  %8 = icmp eq i32 %4, 0
  br i1 %8, label %9, label %lv_draw_buf_width_to_stride.exit.i

9:                                                ; preds = %7
  %10 = load ptr, ptr getelementptr inbounds nuw (i8, ptr @lv_global, i64 392), align 8, !tbaa !10
  %.not.i.i = icmp eq ptr %10, null
  br i1 %.not.i.i, label %lv_draw_buf_width_to_stride.exit.i, label %lv_draw_buf_width_to_stride.exit

lv_draw_buf_width_to_stride.exit:                 ; preds = %9
  %11 = tail call i32 %10(i32 noundef %1, i32 noundef %3) #9
  %12 = icmp eq i32 %11, 0
  br i1 %12, label %13, label %lv_draw_buf_width_to_stride.exit.i

13:                                               ; preds = %lv_draw_buf_width_to_stride.exit
  %.pr = load ptr, ptr getelementptr inbounds nuw (i8, ptr @lv_global, i64 392), align 8, !tbaa !10
  %.not.i.i.i = icmp eq ptr %.pr, null
  br i1 %.not.i.i.i, label %lv_draw_buf_width_to_stride.exit.i, label %14

14:                                               ; preds = %13
  %15 = tail call i32 %.pr(i32 noundef %1, i32 noundef %3) #9
  br label %lv_draw_buf_width_to_stride.exit.i

lv_draw_buf_width_to_stride.exit.i:               ; preds = %9, %7, %14, %13, %lv_draw_buf_width_to_stride.exit
  %.03442 = phi i32 [ %11, %lv_draw_buf_width_to_stride.exit ], [ 0, %14 ], [ 0, %13 ], [ %4, %7 ], [ 0, %9 ]
  %.018.i = phi i32 [ %11, %lv_draw_buf_width_to_stride.exit ], [ %15, %14 ], [ 0, %13 ], [ %4, %7 ], [ 0, %9 ]
  %16 = mul i32 %.018.i, %2
  %17 = icmp eq i32 %3, 20
  br i1 %17, label %18, label %22

18:                                               ; preds = %lv_draw_buf_width_to_stride.exit.i
  %19 = lshr i32 %.018.i, 1
  %20 = add i32 %19, %.018.i
  %21 = mul i32 %20, %2
  br label %_calculate_draw_buf_size.exit

22:                                               ; preds = %lv_draw_buf_width_to_stride.exit.i
  %23 = add i32 %3, -7
  %or.cond.i = icmp ult i32 %23, 4
  br i1 %or.cond.i, label %24, label %_calculate_draw_buf_size.exit

24:                                               ; preds = %22
  switch i32 %3, label %25 [
    i32 7, label %30
    i32 8, label %.fold.split.i
  ]

25:                                               ; preds = %24
  %26 = icmp eq i32 %3, 9
  %27 = icmp eq i32 %3, 10
  %28 = select i1 %27, i32 1024, i32 0
  %29 = select i1 %26, i32 64, i32 %28
  br label %30

.fold.split.i:                                    ; preds = %24
  br label %30

30:                                               ; preds = %.fold.split.i, %25, %24
  %31 = phi i32 [ 8, %24 ], [ %29, %25 ], [ 16, %.fold.split.i ]
  %32 = add i32 %31, %16
  br label %_calculate_draw_buf_size.exit

_calculate_draw_buf_size.exit:                    ; preds = %18, %22, %30
  %.0.i = phi i32 [ %21, %18 ], [ %32, %30 ], [ %16, %22 ]
  %.val = load ptr, ptr %0, align 8, !tbaa !3
  %.not.i = icmp eq ptr %.val, null
  br i1 %.not.i, label %draw_buf_malloc.exit.thread, label %draw_buf_malloc.exit

draw_buf_malloc.exit:                             ; preds = %_calculate_draw_buf_size.exit
  %33 = zext i32 %.0.i to i64
  %34 = tail call ptr %.val(i64 noundef range(i64 0, 4294967296) %33, i32 noundef %3) #9
  %35 = icmp eq ptr %34, null
  br i1 %35, label %draw_buf_malloc.exit.thread, label %36

draw_buf_malloc.exit.thread:                      ; preds = %_calculate_draw_buf_size.exit, %draw_buf_malloc.exit
  tail call void @lv_free(ptr noundef nonnull %6) #9
  br label %60

36:                                               ; preds = %draw_buf_malloc.exit
  %37 = and i32 %1, 65535
  %38 = zext nneg i32 %37 to i64
  %39 = shl nuw nsw i64 %38, 32
  %40 = and i32 %2, 65535
  %41 = zext nneg i32 %40 to i64
  %42 = shl nuw i64 %41, 48
  %43 = or disjoint i64 %39, %42
  %44 = shl i32 %3, 8
  %45 = getelementptr inbounds nuw i8, ptr %6, i64 8
  %46 = load i32, ptr %45, align 8
  %47 = and i32 %.03442, 65535
  %48 = and i32 %46, -65536
  %49 = or disjoint i32 %48, %47
  store i32 %49, ptr %45, align 8
  %50 = and i32 %44, 65280
  %.masked.masked = zext nneg i32 %50 to i64
  %51 = or disjoint i64 %43, %.masked.masked
  %52 = or disjoint i64 %51, 3145753
  store i64 %52, ptr %6, align 8
  %53 = load ptr, ptr getelementptr inbounds nuw (i8, ptr @lv_global, i64 368), align 8, !tbaa !9
  %.not.i.i39 = icmp eq ptr %53, null
  br i1 %.not.i.i39, label %lv_draw_buf_align.exit, label %54

54:                                               ; preds = %36
  %55 = tail call ptr %53(ptr noundef nonnull %34, i32 noundef %3) #9
  br label %lv_draw_buf_align.exit

lv_draw_buf_align.exit:                           ; preds = %36, %54
  %.0.i.i40 = phi ptr [ %55, %54 ], [ null, %36 ]
  %56 = getelementptr inbounds nuw i8, ptr %6, i64 16
  store ptr %.0.i.i40, ptr %56, align 8, !tbaa !19
  %57 = getelementptr inbounds nuw i8, ptr %6, i64 24
  store ptr %34, ptr %57, align 8, !tbaa !28
  %58 = getelementptr inbounds nuw i8, ptr %6, i64 12
  store i32 %.0.i, ptr %58, align 4, !tbaa !29
  %59 = getelementptr inbounds nuw i8, ptr %6, i64 32
  store ptr %0, ptr %59, align 8, !tbaa !13
  br label %60

60:                                               ; preds = %draw_buf_malloc.exit.thread, %lv_draw_buf_align.exit
  %.1 = phi ptr [ null, %draw_buf_malloc.exit.thread ], [ %6, %lv_draw_buf_align.exit ]
  ret ptr %.1
}